target datalayout = "e-m:e-p270:32:32-p271:32:32-p272:64:64-i64:64-i128:128-f80:128-n8:16:32:64-S128"
target triple = "x86_64-pc-linux-gnu"

; Function Attrs: nounwind uwtable
define internal ptr @realloc_and_append(i1 noundef zeroext %0, ptr noundef %1, ptr noundef %2, ptr noundef %3) #0 {
  %5 = alloca ptr, align 8
  %6 = alloca i8, align 1
  %7 = alloca ptr, align 8
  %8 = alloca ptr, align 8
  %9 = alloca ptr, align 8
  %10 = alloca i64, align 8
  %11 = alloca i64, align 8
  %12 = alloca ptr, align 8
  %13 = alloca i32, align 4
  %14 = zext i1 %0 to i8
  store i8 %14, ptr %6, align 1, !tbaa !16
  store ptr %1, ptr %7, align 8, !tbaa !12
  store ptr %2, ptr %8, align 8, !tbaa !7
  store ptr %3, ptr %9, align 8, !tbaa !7
  call void @llvm.lifetime.start.p0(i64 8, ptr %10) #11
  call void @llvm.lifetime.start.p0(i64 8, ptr %11) #11
  %15 = load i8, ptr %6, align 1, !tbaa !16, !range !18, !noundef !19
  %16 = trunc i8 %15 to i1
  br i1 %16, label %17, label %79

17:                                               ; preds = %4
  call void @llvm.lifetime.start.p0(i64 8, ptr %12) #11
  %18 = load ptr, ptr %8, align 8, !tbaa !7
  %19 = icmp ne ptr %18, null
  br i1 %19, label %21, label %20

20:                                               ; preds = %17
  store i32 2, ptr %13, align 4
  br label %76

21:                                               ; preds = %17
  %22 = load ptr, ptr %9, align 8, !tbaa !7
  %23 = icmp ne ptr %22, null
  br i1 %23, label %24, label %48

24:                                               ; preds = %21
  %25 = load ptr, ptr %7, align 8, !tbaa !12
  %26 = load i64, ptr %25, align 8, !tbaa !3
  %27 = load ptr, ptr %8, align 8, !tbaa !7
  %28 = call i64 @strlen(ptr noundef %27) #12
  %29 = load ptr, ptr %9, align 8, !tbaa !7
  %30 = call i64 @strlen(ptr noundef %29) #12
  %31 = add i64 %28, %30
  %32 = add i64 %31, 1
  %33 = sub i64 %26, %32
  %34 = icmp slt i64 %33, 512
  br i1 %34, label %35, label %48

35:                                               ; preds = %24
  %36 = load ptr, ptr %8, align 8, !tbaa !7
  %37 = call i64 @strlen(ptr noundef %36) #12
  %38 = load ptr, ptr %9, align 8, !tbaa !7
  %39 = call i64 @strlen(ptr noundef %38) #12
  %40 = add i64 %37, %39
  %41 = add i64 %40, 1
  %42 = udiv i64 %41, 1024
  %43 = add i64 %42, 1
  %44 = mul i64 %43, 1024
  %45 = load ptr, ptr %7, align 8, !tbaa !12
  %46 = load i64, ptr %45, align 8, !tbaa !3
  %47 = add i64 %46, %44
  store i64 %47, ptr %45, align 8, !tbaa !3
  br label %64

48:                                               ; preds = %24, %21
  %49 = load ptr, ptr %9, align 8, !tbaa !7
  %50 = icmp ne ptr %49, null
  br i1 %50, label %63, label %51

51:                                               ; preds = %48
  %52 = load ptr, ptr %7, align 8, !tbaa !12
  %53 = load i64, ptr %52, align 8, !tbaa !3
  %54 = load ptr, ptr %8, align 8, !tbaa !7
  %55 = call i64 @strlen(ptr noundef %54) #12
  %56 = sub i64 %53, %55
  %57 = sub i64 %56, 1
  %58 = icmp slt i64 %57, 512
  br i1 %58, label %59, label %63

59:                                               ; preds = %51
  %60 = load ptr, ptr %7, align 8, !tbaa !12
  %61 = load i64, ptr %60, align 8, !tbaa !3
  %62 = add i64 %61, 1024
  store i64 %62, ptr %60, align 8, !tbaa !3
  br label %63

63:                                               ; preds = %59, %51, %48
  br label %64

64:                                               ; preds = %63, %35
  %65 = load ptr, ptr %8, align 8, !tbaa !7
  %66 = load ptr, ptr %7, align 8, !tbaa !12
  %67 = load i64, ptr %66, align 8, !tbaa !3
  %68 = call ptr @realloc(ptr noundef %65, i64 noundef %67) #14
  store ptr %68, ptr %12, align 8, !tbaa !7
  %69 = load ptr, ptr %12, align 8, !tbaa !7
  %70 = icmp eq ptr %69, null
  br i1 %70, label %71, label %73

71:                                               ; preds = %64
  %72 = load ptr, ptr %8, align 8, !tbaa !7
  call void @free(ptr noundef %72) #11
  store ptr null, ptr %8, align 8, !tbaa !7
  store i32 2, ptr %13, align 4
  br label %76

73:                                               ; preds = %64
  %74 = load ptr, ptr %12, align 8, !tbaa !7
  store ptr %74, ptr %8, align 8, !tbaa !7
  br label %75

75:                                               ; preds = %73
  store i32 0, ptr %13, align 4
  br label %76

76:                                               ; preds = %71, %20, %75
  call void @llvm.lifetime.end.p0(i64 8, ptr %12) #11
  %77 = load i32, ptr %13, align 4
  switch i32 %77, label %124 [
    i32 0, label %78
    i32 2, label %123
  ]

78:                                               ; preds = %76
  br label %79

79:                                               ; preds = %78, %4
  %80 = load ptr, ptr %9, align 8, !tbaa !7
  %81 = icmp ne ptr %80, null
  br i1 %81, label %82, label %121

82:                                               ; preds = %79
  %83 = load ptr, ptr %9, align 8, !tbaa !7
  %84 = call i64 @strlen(ptr noundef %83) #12
  store i64 %84, ptr %10, align 8, !tbaa !3
  %85 = load ptr, ptr %8, align 8, !tbaa !7
  %86 = call i64 @strlen(ptr noundef %85) #12
  store i64 %86, ptr %11, align 8, !tbaa !3
  %87 = load i64, ptr %11, align 8, !tbaa !3
  %88 = load ptr, ptr %7, align 8, !tbaa !12
  %89 = load i64, ptr %88, align 8, !tbaa !3
  %90 = sub i64 %89, 1
  %91 = icmp ult i64 %87, %90
  br i1 %91, label %92, label %114

92:                                               ; preds = %82
  %93 = load i64, ptr %11, align 8, !tbaa !3
  %94 = load i64, ptr %10, align 8, !tbaa !3
  %95 = add i64 %93, %94
  %96 = load ptr, ptr %7, align 8, !tbaa !12
  %97 = load i64, ptr %96, align 8, !tbaa !3
  %98 = sub i64 %97, 1
  %99 = icmp ult i64 %95, %98
  br i1 %99, label %100, label %104

100:                                              ; preds = %92
  %101 = load ptr, ptr %8, align 8, !tbaa !7
  %102 = load ptr, ptr %9, align 8, !tbaa !7
  %103 = call ptr @strcat(ptr noundef %101, ptr noundef %102) #11
  br label %113

104:                                              ; preds = %92
  %105 = load ptr, ptr %8, align 8, !tbaa !7
  %106 = load ptr, ptr %9, align 8, !tbaa !7
  %107 = load ptr, ptr %7, align 8, !tbaa !12
  %108 = load i64, ptr %107, align 8, !tbaa !3
  %109 = sub i64 %108, 1
  %110 = load i64, ptr %11, align 8, !tbaa !3
  %111 = sub i64 %109, %110
  %112 = call ptr @strncat(ptr noundef %105, ptr noundef %106, i64 noundef %111) #11
  br label %113

113:                                              ; preds = %104, %100
  br label %120

114:                                              ; preds = %82
  %115 = load ptr, ptr %8, align 8, !tbaa !7
  %116 = load ptr, ptr %7, align 8, !tbaa !12
  %117 = load i64, ptr %116, align 8, !tbaa !3
  %118 = sub i64 %117, 1
  %119 = getelementptr inbounds nuw i8, ptr %115, i64 %118
  store i8 0, ptr %119, align 1, !tbaa !15
  br label %120

120:                                              ; preds = %114, %113
  br label %121

121:                                              ; preds = %120, %79
  %122 = load ptr, ptr %8, align 8, !tbaa !7
  store ptr %122, ptr %5, align 8
  store i32 1, ptr %13, align 4
  br label %124

123:                                              ; preds = %76
  store ptr null, ptr %5, align 8
  store i32 1, ptr %13, align 4
  br label %124

124:                                              ; preds = %123, %121, %76
  call void @llvm.lifetime.end.p0(i64 8, ptr %11) #11
  call void @llvm.lifetime.end.p0(i64 8, ptr %10) #11
  %125 = load ptr, ptr %5, align 8
  ret ptr %125
}