; Function Attrs: mustprogress nounwind willreturn uwtable
define internal fastcc noundef ptr @realloc_and_append(i1 noundef zeroext %0, ptr noundef captures(none) %1, ptr noundef %2, ptr noundef readonly captures(address_is_null) %3) unnamed_addr #7 {
  br i1 %0, label %5, label %28

5:                                                ; preds = %4
  %.not = icmp eq ptr %2, null
  br i1 %.not, label %.thread, label %6

6:                                                ; preds = %5
  %.not45 = icmp eq ptr %3, null
  %7 = load i64, ptr %1, align 8, !tbaa !15
  %8 = tail call i64 @strlen(ptr noundef nonnull dereferenceable(1) %2) #21
  br i1 %.not45, label %.critedge, label %9

9:                                                ; preds = %6
  %10 = tail call i64 @strlen(ptr noundef nonnull dereferenceable(1) %3) #21
  %11 = add i64 %8, 1
  %12 = add i64 %11, %10
  %13 = sub i64 %7, %12
  %14 = icmp slt i64 %13, 512
  br i1 %14, label %15, label %23

15:                                               ; preds = %9
  %16 = and i64 %12, -1024
  %17 = add i64 %7, 1024
  %18 = add i64 %17, %16
  br label %.sink.split

.critedge:                                        ; preds = %6
  %19 = sub i64 %8, %7
  %20 = icmp sgt i64 %19, -513
  br i1 %20, label %21, label %23

21:                                               ; preds = %.critedge
  %22 = add i64 %7, 1024
  br label %.sink.split

.sink.split:                                      ; preds = %15, %21
  %.sink = phi i64 [ %22, %21 ], [ %18, %15 ]
  store i64 %.sink, ptr %1, align 8, !tbaa !15
  br label %23

23:                                               ; preds = %.sink.split, %9, %.critedge
  %24 = phi i64 [ %7, %9 ], [ %7, %.critedge ], [ %.sink, %.sink.split ]
  %25 = tail call ptr @realloc(ptr noundef nonnull %2, i64 noundef %24) #23
  %26 = icmp eq ptr %25, null
  br i1 %26, label %27, label %28

27:                                               ; preds = %23
  tail call void @free(ptr noundef nonnull %2) #20
  br label %.thread

28:                                               ; preds = %23, %4
  %.037 = phi ptr [ %2, %4 ], [ %25, %23 ]
  %.not46 = icmp eq ptr %3, null
  br i1 %.not46, label %.thread, label %29

29:                                               ; preds = %28
  %30 = tail call i64 @strlen(ptr noundef nonnull dereferenceable(1) %.037) #21
  %31 = load i64, ptr %1, align 8, !tbaa !15
  %32 = add i64 %31, -1
  %33 = icmp ult i64 %30, %32
  br i1 %33, label %34, label %43

34:                                               ; preds = %29
  %35 = tail call i64 @strlen(ptr noundef nonnull dereferenceable(1) %3) #21
  %36 = add i64 %35, %30
  %37 = icmp ult i64 %36, %32
  br i1 %37, label %38, label %40

38:                                               ; preds = %34
  %39 = tail call ptr @strcat(ptr noundef nonnull dereferenceable(1) %.037, ptr noundef nonnull dereferenceable(1) %3) #20
  br label %.thread

40:                                               ; preds = %34
  %41 = sub i64 %32, %30
  %42 = tail call ptr @strncat(ptr noundef nonnull dereferenceable(1) %.037, ptr noundef nonnull %3, i64 noundef %41) #20
  br label %.thread

43:                                               ; preds = %29
  %44 = getelementptr inbounds nuw i8, ptr %.037, i64 %32
  store i8 0, ptr %44, align 1, !tbaa !7
  br label %.thread

.thread:                                          ; preds = %5, %27, %28, %38, %40, %43
  %.036 = phi ptr [ %.037, %43 ], [ %.037, %40 ], [ %.037, %38 ], [ %.037, %28 ], [ null, %27 ], [ null, %5 ]
  ret ptr %.036
}